target datalayout = "e-m:e-p270:32:32-p271:32:32-p272:64:64-i64:64-i128:128-f80:128-n8:16:32:64-S128"
target triple = "x86_64-pc-linux-gnu"

%struct.grpc_resolved_address = type { [128 x i8], i32 }
%struct.sockaddr = type { i16, [14 x i8] }
%struct.sockaddr_in6 = type { i16, i16, i32, %struct.in6_addr, i32 }
%struct.in6_addr = type { %union.anon }
%union.anon = type { [4 x i32] }
%struct.sockaddr_in = type { i16, i16, %struct.in_addr, [8 x i8] }
%struct.in_addr = type { i32 }

; Function Attrs: mustprogress uwtable
define void @_Z23grpc_sockaddr_mask_bitsP21grpc_resolved_addressj(ptr noundef %0, i32 noundef %1) #4 {
  %3 = alloca ptr, align 8
  %4 = alloca i32, align 4
  %5 = alloca ptr, align 8
  %6 = alloca ptr, align 8
  %7 = alloca i32, align 4
  %8 = alloca i32, align 4
  %9 = alloca ptr, align 8
  %10 = alloca [4 x i32], align 16
  %11 = alloca i32, align 4
  %12 = alloca i32, align 4
  %13 = alloca i32, align 4
  %14 = alloca i32, align 4
  store ptr %0, ptr %3, align 8, !tbaa !3
  store i32 %1, ptr %4, align 4, !tbaa !43
  call void @llvm.lifetime.start.p0(i64 8, ptr %5) #3
  %15 = load ptr, ptr %3, align 8, !tbaa !3
  %16 = getelementptr inbounds nuw %struct.grpc_resolved_address, ptr %15, i32 0, i32 0
  %17 = getelementptr inbounds [128 x i8], ptr %16, i64 0, i64 0
  store ptr %17, ptr %5, align 8, !tbaa !8
  %18 = load ptr, ptr %5, align 8, !tbaa !8
  %19 = getelementptr inbounds nuw %struct.sockaddr, ptr %18, i32 0, i32 0
  %20 = load i16, ptr %19, align 2, !tbaa !12
  %21 = zext i16 %20 to i32
  %22 = icmp eq i32 %21, 2
  br i1 %22, label %23, label %49

23:                                               ; preds = %2
  call void @llvm.lifetime.start.p0(i64 8, ptr %6) #3
  %24 = load ptr, ptr %5, align 8, !tbaa !8
  store ptr %24, ptr %6, align 8, !tbaa !10
  %25 = load i32, ptr %4, align 4, !tbaa !43
  %26 = icmp eq i32 %25, 0
  br i1 %26, label %27, label %30

27:                                               ; preds = %23
  %28 = load ptr, ptr %6, align 8, !tbaa !10
  %29 = getelementptr inbounds nuw %struct.sockaddr_in, ptr %28, i32 0, i32 2
  call void @llvm.memset.p0.i64(ptr align 4 %29, i8 0, i64 4, i1 false)
  store i32 1, ptr %7, align 4
  br label %46

30:                                               ; preds = %23
  %31 = load i32, ptr %4, align 4, !tbaa !43
  %32 = icmp uge i32 %31, 32
  br i1 %32, label %33, label %34

33:                                               ; preds = %30
  store i32 1, ptr %7, align 4
  br label %46

34:                                               ; preds = %30
  br label %35

35:                                               ; preds = %34
  call void @llvm.lifetime.start.p0(i64 4, ptr %8) #3
  %36 = load i32, ptr %4, align 4, !tbaa !43
  %37 = sub i32 32, %36
  %38 = shl i32 -1, %37
  store i32 %38, ptr %8, align 4, !tbaa !43
  %39 = load i32, ptr %8, align 4, !tbaa !43
  %40 = call noundef i32 @_Z10grpc_htonlj(i32 noundef %39)
  %41 = load ptr, ptr %6, align 8, !tbaa !10
  %42 = getelementptr inbounds nuw %struct.sockaddr_in, ptr %41, i32 0, i32 2
  %43 = getelementptr inbounds nuw %struct.in_addr, ptr %42, i32 0, i32 0
  %44 = load i32, ptr %43, align 4, !tbaa !42
  %45 = and i32 %44, %40
  store i32 %45, ptr %43, align 4, !tbaa !42
  call void @llvm.lifetime.end.p0(i64 4, ptr %8) #3
  store i32 0, ptr %7, align 4
  br label %46

46:                                               ; preds = %35, %33, %27
  call void @llvm.lifetime.end.p0(i64 8, ptr %6) #3
  %47 = load i32, ptr %7, align 4
  switch i32 %47, label %138 [
    i32 0, label %48
  ]

48:                                               ; preds = %46
  br label %137

49:                                               ; preds = %2
  %50 = load ptr, ptr %5, align 8, !tbaa !8
  %51 = getelementptr inbounds nuw %struct.sockaddr, ptr %50, i32 0, i32 0
  %52 = load i16, ptr %51, align 2, !tbaa !12
  %53 = zext i16 %52 to i32
  %54 = icmp eq i32 %53, 10
  br i1 %54, label %55, label %136

55:                                               ; preds = %49
  call void @llvm.lifetime.start.p0(i64 8, ptr %9) #3
  %56 = load ptr, ptr %5, align 8, !tbaa !8
  store ptr %56, ptr %9, align 8, !tbaa !15
  %57 = load i32, ptr %4, align 4, !tbaa !43
  %58 = icmp eq i32 %57, 0
  br i1 %58, label %59, label %62

59:                                               ; preds = %55
  %60 = load ptr, ptr %9, align 8, !tbaa !15
  %61 = getelementptr inbounds nuw %struct.sockaddr_in6, ptr %60, i32 0, i32 3
  call void @llvm.memset.p0.i64(ptr align 4 %61, i8 0, i64 16, i1 false)
  store i32 1, ptr %7, align 4
  br label %133

62:                                               ; preds = %55
  %63 = load i32, ptr %4, align 4, !tbaa !43
  %64 = icmp uge i32 %63, 128
  br i1 %64, label %65, label %66

65:                                               ; preds = %62
  store i32 1, ptr %7, align 4
  br label %133

66:                                               ; preds = %62
  br label %67

67:                                               ; preds = %66
  call void @llvm.lifetime.start.p0(i64 16, ptr %10) #3
  %68 = getelementptr inbounds [4 x i32], ptr %10, i64 0, i64 0
  %69 = load ptr, ptr %9, align 8, !tbaa !15
  %70 = getelementptr inbounds nuw %struct.sockaddr_in6, ptr %69, i32 0, i32 3
  call void @llvm.memcpy.p0.p0.i64(ptr align 16 %68, ptr align 4 %70, i64 16, i1 false)
  %71 = load i32, ptr %4, align 4, !tbaa !43
  %72 = icmp ule i32 %71, 32
  br i1 %72, label %73, label %85

73:                                               ; preds = %67
  call void @llvm.lifetime.start.p0(i64 4, ptr %11) #3
  %74 = load i32, ptr %4, align 4, !tbaa !43
  %75 = sub i32 32, %74
  %76 = shl i32 -1, %75
  store i32 %76, ptr %11, align 4, !tbaa !43
  %77 = load i32, ptr %11, align 4, !tbaa !43
  %78 = call noundef i32 @_Z10grpc_htonlj(i32 noundef %77)
  %79 = getelementptr inbounds [4 x i32], ptr %10, i64 0, i64 0
  %80 = load i32, ptr %79, align 16, !tbaa !43
  %81 = and i32 %80, %78
  store i32 %81, ptr %79, align 16, !tbaa !43
  %82 = getelementptr inbounds [4 x i32], ptr %10, i64 0, i64 1
  call void @llvm.memset.p0.i64(ptr align 4 %82, i8 0, i64 4, i1 false)
  %83 = getelementptr inbounds [4 x i32], ptr %10, i64 0, i64 2
  call void @llvm.memset.p0.i64(ptr align 8 %83, i8 0, i64 4, i1 false)
  %84 = getelementptr inbounds [4 x i32], ptr %10, i64 0, i64 3
  call void @llvm.memset.p0.i64(ptr align 4 %84, i8 0, i64 4, i1 false)
  call void @llvm.lifetime.end.p0(i64 4, ptr %11) #3
  br label %129

85:                                               ; preds = %67
  %86 = load i32, ptr %4, align 4, !tbaa !43
  %87 = icmp ule i32 %86, 64
  br i1 %87, label %88, label %101

88:                                               ; preds = %85
  %89 = load i32, ptr %4, align 4, !tbaa !43
  %90 = sub i32 %89, 32
  store i32 %90, ptr %4, align 4, !tbaa !43
  call void @llvm.lifetime.start.p0(i64 4, ptr %12) #3
  %91 = load i32, ptr %4, align 4, !tbaa !43
  %92 = sub i32 32, %91
  %93 = shl i32 -1, %92
  store i32 %93, ptr %12, align 4, !tbaa !43
  %94 = load i32, ptr %12, align 4, !tbaa !43
  %95 = call noundef i32 @_Z10grpc_htonlj(i32 noundef %94)
  %96 = getelementptr inbounds [4 x i32], ptr %10, i64 0, i64 1
  %97 = load i32, ptr %96, align 4, !tbaa !43
  %98 = and i32 %97, %95
  store i32 %98, ptr %96, align 4, !tbaa !43
  %99 = getelementptr inbounds [4 x i32], ptr %10, i64 0, i64 2
  call void @llvm.memset.p0.i64(ptr align 8 %99, i8 0, i64 4, i1 false)
  %100 = getelementptr inbounds [4 x i32], ptr %10, i64 0, i64 3
  call void @llvm.memset.p0.i64(ptr align 4 %100, i8 0, i64 4, i1 false)
  call void @llvm.lifetime.end.p0(i64 4, ptr %12) #3
  br label %128

101:                                              ; preds = %85
  %102 = load i32, ptr %4, align 4, !tbaa !43
  %103 = icmp ule i32 %102, 96
  br i1 %103, label %104, label %116

104:                                              ; preds = %101
  %105 = load i32, ptr %4, align 4, !tbaa !43
  %106 = sub i32 %105, 64
  store i32 %106, ptr %4, align 4, !tbaa !43
  call void @llvm.lifetime.start.p0(i64 4, ptr %13) #3
  %107 = load i32, ptr %4, align 4, !tbaa !43
  %108 = sub i32 32, %107
  %109 = shl i32 -1, %108
  store i32 %109, ptr %13, align 4, !tbaa !43
  %110 = load i32, ptr %13, align 4, !tbaa !43
  %111 = call noundef i32 @_Z10grpc_htonlj(i32 noundef %110)
  %112 = getelementptr inbounds [4 x i32], ptr %10, i64 0, i64 2
  %113 = load i32, ptr %112, align 8, !tbaa !43
  %114 = and i32 %113, %111
  store i32 %114, ptr %112, align 8, !tbaa !43
  %115 = getelementptr inbounds [4 x i32], ptr %10, i64 0, i64 3
  call void @llvm.memset.p0.i64(ptr align 4 %115, i8 0, i64 4, i1 false)
  call void @llvm.lifetime.end.p0(i64 4, ptr %13) #3
  br label %127

116:                                              ; preds = %101
  %117 = load i32, ptr %4, align 4, !tbaa !43
  %118 = sub i32 %117, 96
  store i32 %118, ptr %4, align 4, !tbaa !43
  call void @llvm.lifetime.start.p0(i64 4, ptr %14) #3
  %119 = load i32, ptr %4, align 4, !tbaa !43
  %120 = sub i32 32, %119
  %121 = shl i32 -1, %120
  store i32 %121, ptr %14, align 4, !tbaa !43
  %122 = load i32, ptr %14, align 4, !tbaa !43
  %123 = call noundef i32 @_Z10grpc_htonlj(i32 noundef %122)
  %124 = getelementptr inbounds [4 x i32], ptr %10, i64 0, i64 3
  %125 = load i32, ptr %124, align 4, !tbaa !43
  %126 = and i32 %125, %123
  store i32 %126, ptr %124, align 4, !tbaa !43
  call void @llvm.lifetime.end.p0(i64 4, ptr %14) #3
  br label %127

127:                                              ; preds = %116, %104
  br label %128

128:                                              ; preds = %127, %88
  br label %129

129:                                              ; preds = %128, %73
  %130 = load ptr, ptr %9, align 8, !tbaa !15
  %131 = getelementptr inbounds nuw %struct.sockaddr_in6, ptr %130, i32 0, i32 3
  %132 = getelementptr inbounds [4 x i32], ptr %10, i64 0, i64 0
  call void @llvm.memcpy.p0.p0.i64(ptr align 4 %131, ptr align 16 %132, i64 16, i1 false)
  call void @llvm.lifetime.end.p0(i64 16, ptr %10) #3
  store i32 0, ptr %7, align 4
  br label %133

133:                                              ; preds = %129, %65, %59
  call void @llvm.lifetime.end.p0(i64 8, ptr %9) #3
  %134 = load i32, ptr %7, align 4
  switch i32 %134, label %138 [
    i32 0, label %135
  ]

135:                                              ; preds = %133
  br label %136

136:                                              ; preds = %135, %49
  br label %137

137:                                              ; preds = %136, %48
  store i32 0, ptr %7, align 4
  br label %138

138:                                              ; preds = %137, %133, %46
  call void @llvm.lifetime.end.p0(i64 8, ptr %5) #3
  %139 = load i32, ptr %7, align 4
  switch i32 %139, label %141 [
    i32 0, label %140
    i32 1, label %140
  ]

140:                                              ; preds = %138, %138
  ret void

141:                                              ; preds = %138
  unreachable
}