; Function Attrs: mustprogress uwtable
define void @_Z23grpc_sockaddr_mask_bitsP21grpc_resolved_addressj(ptr noundef captures(none) %0, i32 noundef %1) local_unnamed_addr #3 {
  %3 = load i16, ptr %0, align 2, !tbaa !4
  switch i16 %3, label %.critedge [
    i16 2, label %4
    i16 10, label %17
  ]

4:                                                ; preds = %2
  %5 = icmp eq i32 %1, 0
  br i1 %5, label %6, label %8

6:                                                ; preds = %4
  %7 = getelementptr inbounds nuw i8, ptr %0, i64 4
  store i32 0, ptr %7, align 4
  br label %.critedge

8:                                                ; preds = %4
  %9 = icmp ugt i32 %1, 31
  br i1 %9, label %.critedge, label %10

10:                                               ; preds = %8
  %11 = sub nuw nsw i32 32, %1
  %12 = shl nsw i32 -1, %11
  %13 = tail call noundef i32 @_Z10grpc_htonlj(i32 noundef %12)
  %14 = getelementptr inbounds nuw i8, ptr %0, i64 4
  %15 = load i32, ptr %14, align 4, !tbaa !20
  %16 = and i32 %15, %13
  store i32 %16, ptr %14, align 4, !tbaa !20
  br label %.critedge

17:                                               ; preds = %2
  %18 = icmp eq i32 %1, 0
  br i1 %18, label %19, label %21

19:                                               ; preds = %17
  %20 = getelementptr inbounds nuw i8, ptr %0, i64 8
  tail call void @llvm.memset.p0.i64(ptr noundef nonnull align 4 dereferenceable(16) %20, i8 0, i64 16, i1 false)
  br label %.critedge

21:                                               ; preds = %17
  %22 = icmp ugt i32 %1, 127
  br i1 %22, label %.critedge, label %23

23:                                               ; preds = %21
  %24 = getelementptr inbounds nuw i8, ptr %0, i64 8
  %.sroa.0.0.copyload = load i32, ptr %24, align 4
  %.sroa.6.0..sroa_idx = getelementptr inbounds nuw i8, ptr %0, i64 12
  %.sroa.6.0.copyload = load i32, ptr %.sroa.6.0..sroa_idx, align 4
  %.sroa.9.0..sroa_idx = getelementptr inbounds nuw i8, ptr %0, i64 16
  %.sroa.9.0.copyload = load i32, ptr %.sroa.9.0..sroa_idx, align 4
  %.sroa.13.0..sroa_idx = getelementptr inbounds nuw i8, ptr %0, i64 20
  %.sroa.13.0.copyload = load i32, ptr %.sroa.13.0..sroa_idx, align 4
  %25 = icmp samesign ult i32 %1, 33
  br i1 %25, label %26, label %31

26:                                               ; preds = %23
  %27 = sub nuw nsw i32 32, %1
  %28 = shl nsw i32 -1, %27
  %29 = tail call noundef i32 @_Z10grpc_htonlj(i32 noundef %28)
  %30 = and i32 %29, %.sroa.0.0.copyload
  br label %50

31:                                               ; preds = %23
  %32 = icmp samesign ult i32 %1, 65
  br i1 %32, label %33, label %38

33:                                               ; preds = %31
  %34 = sub nuw nsw i32 64, %1
  %35 = shl nsw i32 -1, %34
  %36 = tail call noundef i32 @_Z10grpc_htonlj(i32 noundef %35)
  %37 = and i32 %36, %.sroa.6.0.copyload
  br label %50

38:                                               ; preds = %31
  %39 = icmp samesign ult i32 %1, 97
  br i1 %39, label %40, label %45

40:                                               ; preds = %38
  %41 = sub nuw nsw i32 96, %1
  %42 = shl nsw i32 -1, %41
  %43 = tail call noundef i32 @_Z10grpc_htonlj(i32 noundef %42)
  %44 = and i32 %43, %.sroa.9.0.copyload
  br label %50

45:                                               ; preds = %38
  %46 = sub nuw nsw i32 128, %1
  %47 = shl nsw i32 -1, %46
  %48 = tail call noundef i32 @_Z10grpc_htonlj(i32 noundef %47)
  %49 = and i32 %48, %.sroa.13.0.copyload
  br label %50

50:                                               ; preds = %33, %45, %40, %26
  %.sroa.6.0 = phi i32 [ 0, %26 ], [ %37, %33 ], [ %.sroa.6.0.copyload, %40 ], [ %.sroa.6.0.copyload, %45 ]
  %.sroa.0.0 = phi i32 [ %30, %26 ], [ %.sroa.0.0.copyload, %33 ], [ %.sroa.0.0.copyload, %40 ], [ %.sroa.0.0.copyload, %45 ]
  %.sroa.9.0 = phi i32 [ 0, %26 ], [ 0, %33 ], [ %44, %40 ], [ %.sroa.9.0.copyload, %45 ]
  %.sroa.13.0 = phi i32 [ 0, %26 ], [ 0, %33 ], [ 0, %40 ], [ %49, %45 ]
  store i32 %.sroa.0.0, ptr %24, align 4
  store i32 %.sroa.6.0, ptr %.sroa.6.0..sroa_idx, align 4
  store i32 %.sroa.9.0, ptr %.sroa.9.0..sroa_idx, align 4
  store i32 %.sroa.13.0, ptr %.sroa.13.0..sroa_idx, align 4
  br label %.critedge

.critedge:                                        ; preds = %19, %21, %6, %8, %10, %2, %50
  ret void
}